target datalayout = "e-m:e-p270:32:32-p271:32:32-p272:64:64-i64:64-i128:128-f80:128-n8:16:32:64-S128"
target triple = "x86_64-pc-linux-gnu"

%"struct.meshopt::Vector3" = type { float, float, float }

@__const._ZN7meshoptL16rescalePositionsEPNS_7Vector3EPKfmmPKj.minv = private unnamed_addr constant [3 x float] [float 0x47EFFFFFE0000000, float 0x47EFFFFFE0000000, float 0x47EFFFFFE0000000], align 4
@__const._ZN7meshoptL16rescalePositionsEPNS_7Vector3EPKfmmPKj.maxv = private unnamed_addr constant [3 x float] [float 0xC7EFFFFFE0000000, float 0xC7EFFFFFE0000000, float 0xC7EFFFFFE0000000], align 4

; Function Attrs: mustprogress nounwind uwtable
define internal noundef float @_ZN7meshoptL16rescalePositionsEPNS_7Vector3EPKfmmPKj(ptr noundef %0, ptr noundef %1, i64 noundef %2, i64 noundef %3, ptr noundef %4) #2 {
  %6 = alloca ptr, align 8
  %7 = alloca ptr, align 8
  %8 = alloca i64, align 8
  %9 = alloca i64, align 8
  %10 = alloca ptr, align 8
  %11 = alloca i64, align 8
  %12 = alloca [3 x float], align 4
  %13 = alloca [3 x float], align 4
  %14 = alloca i64, align 8
  %15 = alloca i32, align 4
  %16 = alloca i32, align 4
  %17 = alloca ptr, align 8
  %18 = alloca i32, align 4
  %19 = alloca float, align 4
  %20 = alloca float, align 4
  %21 = alloca float, align 4
  %22 = alloca i64, align 8
  store ptr %0, ptr %6, align 8, !tbaa !21
  store ptr %1, ptr %7, align 8, !tbaa !11
  store i64 %2, ptr %8, align 8, !tbaa !9
  store i64 %3, ptr %9, align 8, !tbaa !9
  store ptr %4, ptr %10, align 8, !tbaa !4
  call void @llvm.lifetime.start.p0(i64 8, ptr %11) #11
  %23 = load i64, ptr %9, align 8, !tbaa !9
  %24 = udiv i64 %23, 4
  store i64 %24, ptr %11, align 8, !tbaa !9
  call void @llvm.lifetime.start.p0(i64 12, ptr %12) #11
  call void @llvm.memcpy.p0.p0.i64(ptr align 4 %12, ptr align 4 @__const._ZN7meshoptL16rescalePositionsEPNS_7Vector3EPKfmmPKj.minv, i64 12, i1 false)
  call void @llvm.lifetime.start.p0(i64 12, ptr %13) #11
  call void @llvm.memcpy.p0.p0.i64(ptr align 4 %13, ptr align 4 @__const._ZN7meshoptL16rescalePositionsEPNS_7Vector3EPKfmmPKj.maxv, i64 12, i1 false)
  call void @llvm.lifetime.start.p0(i64 8, ptr %14) #11
  store i64 0, ptr %14, align 8, !tbaa !9
  br label %25

25:                                               ; preds = %124, %5
  %26 = load i64, ptr %14, align 8, !tbaa !9
  %27 = load i64, ptr %8, align 8, !tbaa !9
  %28 = icmp ult i64 %26, %27
  br i1 %28, label %30, label %29

29:                                               ; preds = %25
  store i32 2, ptr %15, align 4
  call void @llvm.lifetime.end.p0(i64 8, ptr %14) #11
  br label %127

30:                                               ; preds = %25
  call void @llvm.lifetime.start.p0(i64 4, ptr %16) #11
  %31 = load ptr, ptr %10, align 8, !tbaa !4
  %32 = icmp ne ptr %31, null
  br i1 %32, label %33, label %38

33:                                               ; preds = %30
  %34 = load ptr, ptr %10, align 8, !tbaa !4
  %35 = load i64, ptr %14, align 8, !tbaa !9
  %36 = getelementptr inbounds nuw i32, ptr %34, i64 %35
  %37 = load i32, ptr %36, align 4, !tbaa !17
  br label %41

38:                                               ; preds = %30
  %39 = load i64, ptr %14, align 8, !tbaa !9
  %40 = trunc i64 %39 to i32
  br label %41

41:                                               ; preds = %38, %33
  %42 = phi i32 [ %37, %33 ], [ %40, %38 ]
  store i32 %42, ptr %16, align 4, !tbaa !17
  call void @llvm.lifetime.start.p0(i64 8, ptr %17) #11
  %43 = load ptr, ptr %7, align 8, !tbaa !11
  %44 = load i32, ptr %16, align 4, !tbaa !17
  %45 = zext i32 %44 to i64
  %46 = load i64, ptr %11, align 8, !tbaa !9
  %47 = mul i64 %45, %46
  %48 = getelementptr inbounds nuw float, ptr %43, i64 %47
  store ptr %48, ptr %17, align 8, !tbaa !11
  %49 = load ptr, ptr %6, align 8, !tbaa !21
  %50 = icmp ne ptr %49, null
  br i1 %50, label %51, label %73

51:                                               ; preds = %41
  %52 = load ptr, ptr %17, align 8, !tbaa !11
  %53 = getelementptr inbounds float, ptr %52, i64 0
  %54 = load float, ptr %53, align 4, !tbaa !15
  %55 = load ptr, ptr %6, align 8, !tbaa !21
  %56 = load i64, ptr %14, align 8, !tbaa !9
  %57 = getelementptr inbounds nuw %"struct.meshopt::Vector3", ptr %55, i64 %56
  %58 = getelementptr inbounds nuw %"struct.meshopt::Vector3", ptr %57, i32 0, i32 0
  store float %54, ptr %58, align 4, !tbaa !75
  %59 = load ptr, ptr %17, align 8, !tbaa !11
  %60 = getelementptr inbounds float, ptr %59, i64 1
  %61 = load float, ptr %60, align 4, !tbaa !15
  %62 = load ptr, ptr %6, align 8, !tbaa !21
  %63 = load i64, ptr %14, align 8, !tbaa !9
  %64 = getelementptr inbounds nuw %"struct.meshopt::Vector3", ptr %62, i64 %63
  %65 = getelementptr inbounds nuw %"struct.meshopt::Vector3", ptr %64, i32 0, i32 1
  store float %61, ptr %65, align 4, !tbaa !77
  %66 = load ptr, ptr %17, align 8, !tbaa !11
  %67 = getelementptr inbounds float, ptr %66, i64 2
  %68 = load float, ptr %67, align 4, !tbaa !15
  %69 = load ptr, ptr %6, align 8, !tbaa !21
  %70 = load i64, ptr %14, align 8, !tbaa !9
  %71 = getelementptr inbounds nuw %"struct.meshopt::Vector3", ptr %69, i64 %70
  %72 = getelementptr inbounds nuw %"struct.meshopt::Vector3", ptr %71, i32 0, i32 2
  store float %68, ptr %72, align 4, !tbaa !78
  br label %73

73:                                               ; preds = %51, %41
  call void @llvm.lifetime.start.p0(i64 4, ptr %18) #11
  store i32 0, ptr %18, align 4, !tbaa !17
  br label %74

74:                                               ; preds = %120, %73
  %75 = load i32, ptr %18, align 4, !tbaa !17
  %76 = icmp slt i32 %75, 3
  br i1 %76, label %78, label %77

77:                                               ; preds = %74
  store i32 5, ptr %15, align 4
  call void @llvm.lifetime.end.p0(i64 4, ptr %18) #11
  br label %123

78:                                               ; preds = %74
  call void @llvm.lifetime.start.p0(i64 4, ptr %19) #11
  %79 = load ptr, ptr %17, align 8, !tbaa !11
  %80 = load i32, ptr %18, align 4, !tbaa !17
  %81 = sext i32 %80 to i64
  %82 = getelementptr inbounds float, ptr %79, i64 %81
  %83 = load float, ptr %82, align 4, !tbaa !15
  store float %83, ptr %19, align 4, !tbaa !15
  %84 = load i32, ptr %18, align 4, !tbaa !17
  %85 = sext i32 %84 to i64
  %86 = getelementptr inbounds [3 x float], ptr %12, i64 0, i64 %85
  %87 = load float, ptr %86, align 4, !tbaa !15
  %88 = load float, ptr %19, align 4, !tbaa !15
  %89 = fcmp ogt float %87, %88
  br i1 %89, label %90, label %92

90:                                               ; preds = %78
  %91 = load float, ptr %19, align 4, !tbaa !15
  br label %97

92:                                               ; preds = %78
  %93 = load i32, ptr %18, align 4, !tbaa !17
  %94 = sext i32 %93 to i64
  %95 = getelementptr inbounds [3 x float], ptr %12, i64 0, i64 %94
  %96 = load float, ptr %95, align 4, !tbaa !15
  br label %97

97:                                               ; preds = %92, %90
  %98 = phi float [ %91, %90 ], [ %96, %92 ]
  %99 = load i32, ptr %18, align 4, !tbaa !17
  %100 = sext i32 %99 to i64
  %101 = getelementptr inbounds [3 x float], ptr %12, i64 0, i64 %100
  store float %98, ptr %101, align 4, !tbaa !15
  %102 = load i32, ptr %18, align 4, !tbaa !17
  %103 = sext i32 %102 to i64
  %104 = getelementptr inbounds [3 x float], ptr %13, i64 0, i64 %103
  %105 = load float, ptr %104, align 4, !tbaa !15
  %106 = load float, ptr %19, align 4, !tbaa !15
  %107 = fcmp olt float %105, %106
  br i1 %107, label %108, label %110

108:                                              ; preds = %97
  %109 = load float, ptr %19, align 4, !tbaa !15
  br label %115

110:                                              ; preds = %97
  %111 = load i32, ptr %18, align 4, !tbaa !17
  %112 = sext i32 %111 to i64
  %113 = getelementptr inbounds [3 x float], ptr %13, i64 0, i64 %112
  %114 = load float, ptr %113, align 4, !tbaa !15
  br label %115

115:                                              ; preds = %110, %108
  %116 = phi float [ %109, %108 ], [ %114, %110 ]
  %117 = load i32, ptr %18, align 4, !tbaa !17
  %118 = sext i32 %117 to i64
  %119 = getelementptr inbounds [3 x float], ptr %13, i64 0, i64 %118
  store float %116, ptr %119, align 4, !tbaa !15
  call void @llvm.lifetime.end.p0(i64 4, ptr %19) #11
  br label %120

120:                                              ; preds = %115
  %121 = load i32, ptr %18, align 4, !tbaa !17
  %122 = add nsw i32 %121, 1
  store i32 %122, ptr %18, align 4, !tbaa !17
  br label %74, !llvm.loop !79

123:                                              ; preds = %77
  call void @llvm.lifetime.end.p0(i64 8, ptr %17) #11
  call void @llvm.lifetime.end.p0(i64 4, ptr %16) #11
  br label %124

124:                                              ; preds = %123
  %125 = load i64, ptr %14, align 8, !tbaa !9
  %126 = add i64 %125, 1
  store i64 %126, ptr %14, align 8, !tbaa !9
  br label %25, !llvm.loop !80

127:                                              ; preds = %29
  call void @llvm.lifetime.start.p0(i64 4, ptr %20) #11
  store float 0.000000e+00, ptr %20, align 4, !tbaa !15
  %128 = getelementptr inbounds [3 x float], ptr %13, i64 0, i64 0
  %129 = load float, ptr %128, align 4, !tbaa !15
  %130 = getelementptr inbounds [3 x float], ptr %12, i64 0, i64 0
  %131 = load float, ptr %130, align 4, !tbaa !15
  %132 = fsub float %129, %131
  %133 = load float, ptr %20, align 4, !tbaa !15
  %134 = fcmp olt float %132, %133
  br i1 %134, label %135, label %137

135:                                              ; preds = %127
  %136 = load float, ptr %20, align 4, !tbaa !15
  br label %143

137:                                              ; preds = %127
  %138 = getelementptr inbounds [3 x float], ptr %13, i64 0, i64 0
  %139 = load float, ptr %138, align 4, !tbaa !15
  %140 = getelementptr inbounds [3 x float], ptr %12, i64 0, i64 0
  %141 = load float, ptr %140, align 4, !tbaa !15
  %142 = fsub float %139, %141
  br label %143

143:                                              ; preds = %137, %135
  %144 = phi float [ %136, %135 ], [ %142, %137 ]
  store float %144, ptr %20, align 4, !tbaa !15
  %145 = getelementptr inbounds [3 x float], ptr %13, i64 0, i64 1
  %146 = load float, ptr %145, align 4, !tbaa !15
  %147 = getelementptr inbounds [3 x float], ptr %12, i64 0, i64 1
  %148 = load float, ptr %147, align 4, !tbaa !15
  %149 = fsub float %146, %148
  %150 = load float, ptr %20, align 4, !tbaa !15
  %151 = fcmp olt float %149, %150
  br i1 %151, label %152, label %154

152:                                              ; preds = %143
  %153 = load float, ptr %20, align 4, !tbaa !15
  br label %160

154:                                              ; preds = %143
  %155 = getelementptr inbounds [3 x float], ptr %13, i64 0, i64 1
  %156 = load float, ptr %155, align 4, !tbaa !15
  %157 = getelementptr inbounds [3 x float], ptr %12, i64 0, i64 1
  %158 = load float, ptr %157, align 4, !tbaa !15
  %159 = fsub float %156, %158
  br label %160

160:                                              ; preds = %154, %152
  %161 = phi float [ %153, %152 ], [ %159, %154 ]
  store float %161, ptr %20, align 4, !tbaa !15
  %162 = getelementptr inbounds [3 x float], ptr %13, i64 0, i64 2
  %163 = load float, ptr %162, align 4, !tbaa !15
  %164 = getelementptr inbounds [3 x float], ptr %12, i64 0, i64 2
  %165 = load float, ptr %164, align 4, !tbaa !15
  %166 = fsub float %163, %165
  %167 = load float, ptr %20, align 4, !tbaa !15
  %168 = fcmp olt float %166, %167
  br i1 %168, label %169, label %171

169:                                              ; preds = %160
  %170 = load float, ptr %20, align 4, !tbaa !15
  br label %177

171:                                              ; preds = %160
  %172 = getelementptr inbounds [3 x float], ptr %13, i64 0, i64 2
  %173 = load float, ptr %172, align 4, !tbaa !15
  %174 = getelementptr inbounds [3 x float], ptr %12, i64 0, i64 2
  %175 = load float, ptr %174, align 4, !tbaa !15
  %176 = fsub float %173, %175
  br label %177

177:                                              ; preds = %171, %169
  %178 = phi float [ %170, %169 ], [ %176, %171 ]
  store float %178, ptr %20, align 4, !tbaa !15
  %179 = load ptr, ptr %6, align 8, !tbaa !21
  %180 = icmp ne ptr %179, null
  br i1 %180, label %181, label %242

181:                                              ; preds = %177
  call void @llvm.lifetime.start.p0(i64 4, ptr %21) #11
  %182 = load float, ptr %20, align 4, !tbaa !15
  %183 = fcmp oeq float %182, 0.000000e+00
  br i1 %183, label %184, label %185

184:                                              ; preds = %181
  br label %188

185:                                              ; preds = %181
  %186 = load float, ptr %20, align 4, !tbaa !15
  %187 = fdiv float 1.000000e+00, %186
  br label %188

188:                                              ; preds = %185, %184
  %189 = phi float [ 0.000000e+00, %184 ], [ %187, %185 ]
  store float %189, ptr %21, align 4, !tbaa !15
  call void @llvm.lifetime.start.p0(i64 8, ptr %22) #11
  store i64 0, ptr %22, align 8, !tbaa !9
  br label %190

190:                                              ; preds = %238, %188
  %191 = load i64, ptr %22, align 8, !tbaa !9
  %192 = load i64, ptr %8, align 8, !tbaa !9
  %193 = icmp ult i64 %191, %192
  br i1 %193, label %195, label %194

194:                                              ; preds = %190
  store i32 8, ptr %15, align 4
  call void @llvm.lifetime.end.p0(i64 8, ptr %22) #11
  br label %241

195:                                              ; preds = %190
  %196 = load ptr, ptr %6, align 8, !tbaa !21
  %197 = load i64, ptr %22, align 8, !tbaa !9
  %198 = getelementptr inbounds nuw %"struct.meshopt::Vector3", ptr %196, i64 %197
  %199 = getelementptr inbounds nuw %"struct.meshopt::Vector3", ptr %198, i32 0, i32 0
  %200 = load float, ptr %199, align 4, !tbaa !75
  %201 = getelementptr inbounds [3 x float], ptr %12, i64 0, i64 0
  %202 = load float, ptr %201, align 4, !tbaa !15
  %203 = fsub float %200, %202
  %204 = load float, ptr %21, align 4, !tbaa !15
  %205 = fmul float %203, %204
  %206 = load ptr, ptr %6, align 8, !tbaa !21
  %207 = load i64, ptr %22, align 8, !tbaa !9
  %208 = getelementptr inbounds nuw %"struct.meshopt::Vector3", ptr %206, i64 %207
  %209 = getelementptr inbounds nuw %"struct.meshopt::Vector3", ptr %208, i32 0, i32 0
  store float %205, ptr %209, align 4, !tbaa !75
  %210 = load ptr, ptr %6, align 8, !tbaa !21
  %211 = load i64, ptr %22, align 8, !tbaa !9
  %212 = getelementptr inbounds nuw %"struct.meshopt::Vector3", ptr %210, i64 %211
  %213 = getelementptr inbounds nuw %"struct.meshopt::Vector3", ptr %212, i32 0, i32 1
  %214 = load float, ptr %213, align 4, !tbaa !77
  %215 = getelementptr inbounds [3 x float], ptr %12, i64 0, i64 1
  %216 = load float, ptr %215, align 4, !tbaa !15
  %217 = fsub float %214, %216
  %218 = load float, ptr %21, align 4, !tbaa !15
  %219 = fmul float %217, %218
  %220 = load ptr, ptr %6, align 8, !tbaa !21
  %221 = load i64, ptr %22, align 8, !tbaa !9
  %222 = getelementptr inbounds nuw %"struct.meshopt::Vector3", ptr %220, i64 %221
  %223 = getelementptr inbounds nuw %"struct.meshopt::Vector3", ptr %222, i32 0, i32 1
  store float %219, ptr %223, align 4, !tbaa !77
  %224 = load ptr, ptr %6, align 8, !tbaa !21
  %225 = load i64, ptr %22, align 8, !tbaa !9
  %226 = getelementptr inbounds nuw %"struct.meshopt::Vector3", ptr %224, i64 %225
  %227 = getelementptr inbounds nuw %"struct.meshopt::Vector3", ptr %226, i32 0, i32 2
  %228 = load float, ptr %227, align 4, !tbaa !78
  %229 = getelementptr inbounds [3 x float], ptr %12, i64 0, i64 2
  %230 = load float, ptr %229, align 4, !tbaa !15
  %231 = fsub float %228, %230
  %232 = load float, ptr %21, align 4, !tbaa !15
  %233 = fmul float %231, %232
  %234 = load ptr, ptr %6, align 8, !tbaa !21
  %235 = load i64, ptr %22, align 8, !tbaa !9
  %236 = getelementptr inbounds nuw %"struct.meshopt::Vector3", ptr %234, i64 %235
  %237 = getelementptr inbounds nuw %"struct.meshopt::Vector3", ptr %236, i32 0, i32 2
  store float %233, ptr %237, align 4, !tbaa !78
  br label %238

238:                                              ; preds = %195
  %239 = load i64, ptr %22, align 8, !tbaa !9
  %240 = add i64 %239, 1
  store i64 %240, ptr %22, align 8, !tbaa !9
  br label %190, !llvm.loop !81

241:                                              ; preds = %194
  call void @llvm.lifetime.end.p0(i64 4, ptr %21) #11
  br label %242

242:                                              ; preds = %241, %177
  %243 = load float, ptr %20, align 4, !tbaa !15
  store i32 1, ptr %15, align 4
  call void @llvm.lifetime.end.p0(i64 4, ptr %20) #11
  call void @llvm.lifetime.end.p0(i64 12, ptr %13) #11
  call void @llvm.lifetime.end.p0(i64 12, ptr %12) #11
  call void @llvm.lifetime.end.p0(i64 8, ptr %11) #11
  ret float %243
}