; Function Attrs: mustprogress nofree norecurse nosync nounwind memory(argmem: readwrite) uwtable
define internal fastcc noundef float @_ZN7meshoptL16rescalePositionsEPNS_7Vector3EPKfmmPKj(ptr noundef %0, ptr noundef readonly captures(none) %1, i64 noundef %2, i64 noundef %3, ptr noundef readonly %4) unnamed_addr #4 {
  %6 = alloca [3 x float], align 4
  %7 = alloca [3 x float], align 4
  %8 = lshr i64 %3, 2
  call void @llvm.lifetime.start.p0(i64 12, ptr nonnull %6) #16
  call void @llvm.memcpy.p0.p0.i64(ptr noundef nonnull align 4 dereferenceable(12) %6, ptr noundef nonnull align 4 dereferenceable(12) @__const._ZN7meshoptL16rescalePositionsEPNS_7Vector3EPKfmmPKj.minv, i64 12, i1 false)
  call void @llvm.lifetime.start.p0(i64 12, ptr nonnull %7) #16
  call void @llvm.memcpy.p0.p0.i64(ptr noundef nonnull align 4 dereferenceable(12) %7, ptr noundef nonnull align 4 dereferenceable(12) @__const._ZN7meshoptL16rescalePositionsEPNS_7Vector3EPKfmmPKj.maxv, i64 12, i1 false)
  %.not81 = icmp eq i64 %2, 0
  br i1 %.not81, label %._crit_edge, label %.lr.ph

.lr.ph:                                           ; preds = %5
  %.not71 = icmp eq ptr %4, null
  %.not72 = icmp eq ptr %0, null
  br i1 %.not72, label %.lr.ph.split.us, label %.lr.ph.split

.lr.ph.split.us:                                  ; preds = %.lr.ph, %19
  %.06274.us = phi i64 [ %20, %19 ], [ 0, %.lr.ph ]
  br i1 %.not71, label %12, label %9

9:                                                ; preds = %.lr.ph.split.us
  %10 = getelementptr inbounds nuw i32, ptr %4, i64 %.06274.us
  %11 = load i32, ptr %10, align 4, !tbaa !13
  br label %14

12:                                               ; preds = %.lr.ph.split.us
  %13 = trunc i64 %.06274.us to i32
  br label %14

14:                                               ; preds = %12, %9
  %15 = phi i32 [ %11, %9 ], [ %13, %12 ]
  %16 = zext i32 %15 to i64
  %17 = mul i64 %8, %16
  %18 = getelementptr inbounds nuw float, ptr %1, i64 %17
  br label %21

19:                                               ; preds = %21
  %20 = add nuw i64 %.06274.us, 1
  %exitcond96.not = icmp eq i64 %20, %2
  br i1 %exitcond96.not, label %._crit_edge, label %.lr.ph.split.us, !llvm.loop !101

21:                                               ; preds = %21, %14
  %indvars.iv92 = phi i64 [ %indvars.iv.next93, %21 ], [ 0, %14 ]
  %22 = getelementptr inbounds nuw float, ptr %18, i64 %indvars.iv92
  %23 = load float, ptr %22, align 4, !tbaa !34
  %24 = getelementptr inbounds nuw [3 x float], ptr %6, i64 0, i64 %indvars.iv92
  %25 = load float, ptr %24, align 4, !tbaa !34
  %26 = fcmp ogt float %25, %23
  %..us = select i1 %26, float %23, float %25
  store float %..us, ptr %24, align 4, !tbaa !34
  %27 = getelementptr inbounds nuw [3 x float], ptr %7, i64 0, i64 %indvars.iv92
  %28 = load float, ptr %27, align 4, !tbaa !34
  %29 = fcmp olt float %28, %23
  %30 = select i1 %29, float %23, float %28
  store float %30, ptr %27, align 4, !tbaa !34
  %indvars.iv.next93 = add nuw nsw i64 %indvars.iv92, 1
  %exitcond95.not = icmp eq i64 %indvars.iv.next93, 3
  br i1 %exitcond95.not, label %19, label %21, !llvm.loop !102

.lr.ph.split:                                     ; preds = %.lr.ph
  br i1 %.not71, label %.lr.ph.split.split.us, label %.lr.ph.split.split

.lr.ph.split.split.us:                            ; preds = %.lr.ph.split, %42
  %.06274.us75 = phi i64 [ %43, %42 ], [ 0, %.lr.ph.split ]
  %31 = and i64 %.06274.us75, 4294967295
  %32 = mul i64 %31, %8
  %33 = getelementptr inbounds nuw float, ptr %1, i64 %32
  %34 = load float, ptr %33, align 4, !tbaa !34
  %35 = getelementptr inbounds nuw %"struct.meshopt::Vector3", ptr %0, i64 %.06274.us75
  store float %34, ptr %35, align 4, !tbaa !39
  %36 = getelementptr inbounds nuw i8, ptr %33, i64 4
  %37 = load float, ptr %36, align 4, !tbaa !34
  %38 = getelementptr inbounds nuw i8, ptr %35, i64 4
  store float %37, ptr %38, align 4, !tbaa !41
  %39 = getelementptr inbounds nuw i8, ptr %33, i64 8
  %40 = load float, ptr %39, align 4, !tbaa !34
  %41 = getelementptr inbounds nuw i8, ptr %35, i64 8
  store float %40, ptr %41, align 4, !tbaa !42
  br label %44

42:                                               ; preds = %44
  %43 = add nuw i64 %.06274.us75, 1
  %exitcond91.not = icmp eq i64 %43, %2
  br i1 %exitcond91.not, label %._crit_edge, label %.lr.ph.split.split.us, !llvm.loop !101

44:                                               ; preds = %44, %.lr.ph.split.split.us
  %indvars.iv87 = phi i64 [ %indvars.iv.next88, %44 ], [ 0, %.lr.ph.split.split.us ]
  %45 = getelementptr inbounds nuw float, ptr %33, i64 %indvars.iv87
  %46 = load float, ptr %45, align 4, !tbaa !34
  %47 = getelementptr inbounds nuw [3 x float], ptr %6, i64 0, i64 %indvars.iv87
  %48 = load float, ptr %47, align 4, !tbaa !34
  %49 = fcmp ogt float %48, %46
  %..us77 = select i1 %49, float %46, float %48
  store float %..us77, ptr %47, align 4, !tbaa !34
  %50 = getelementptr inbounds nuw [3 x float], ptr %7, i64 0, i64 %indvars.iv87
  %51 = load float, ptr %50, align 4, !tbaa !34
  %52 = fcmp olt float %51, %46
  %53 = select i1 %52, float %46, float %51
  store float %53, ptr %50, align 4, !tbaa !34
  %indvars.iv.next88 = add nuw nsw i64 %indvars.iv87, 1
  %exitcond90.not = icmp eq i64 %indvars.iv.next88, 3
  br i1 %exitcond90.not, label %42, label %44, !llvm.loop !102

._crit_edge:                                      ; preds = %86, %42, %19, %5
  %54 = load float, ptr %7, align 4, !tbaa !34
  %55 = load float, ptr %6, align 4, !tbaa !34
  %56 = fsub float %54, %55
  %57 = fcmp olt float %56, 0.000000e+00
  %58 = select i1 %57, float 0.000000e+00, float %56
  %59 = getelementptr inbounds nuw i8, ptr %7, i64 4
  %60 = load float, ptr %59, align 4, !tbaa !34
  %61 = getelementptr inbounds nuw i8, ptr %6, i64 4
  %62 = load float, ptr %61, align 4, !tbaa !34
  %63 = fsub float %60, %62
  %64 = fcmp olt float %63, %58
  %65 = select i1 %64, float %58, float %63
  %66 = getelementptr inbounds nuw i8, ptr %7, i64 8
  %67 = load float, ptr %66, align 4, !tbaa !34
  %68 = getelementptr inbounds nuw i8, ptr %6, i64 8
  %69 = load float, ptr %68, align 4, !tbaa !34
  %70 = fsub float %67, %69
  %71 = fcmp olt float %70, %65
  %72 = select i1 %71, float %65, float %70
  %.not = icmp eq ptr %0, null
  br i1 %.not, label %.loopexit, label %98

.lr.ph.split.split:                               ; preds = %.lr.ph.split, %86
  %.06274 = phi i64 [ %87, %86 ], [ 0, %.lr.ph.split ]
  %73 = getelementptr inbounds nuw i32, ptr %4, i64 %.06274
  %74 = load i32, ptr %73, align 4, !tbaa !13
  %75 = zext i32 %74 to i64
  %76 = mul i64 %8, %75
  %77 = getelementptr inbounds nuw float, ptr %1, i64 %76
  %78 = load float, ptr %77, align 4, !tbaa !34
  %79 = getelementptr inbounds nuw %"struct.meshopt::Vector3", ptr %0, i64 %.06274
  store float %78, ptr %79, align 4, !tbaa !39
  %80 = getelementptr inbounds nuw i8, ptr %77, i64 4
  %81 = load float, ptr %80, align 4, !tbaa !34
  %82 = getelementptr inbounds nuw i8, ptr %79, i64 4
  store float %81, ptr %82, align 4, !tbaa !41
  %83 = getelementptr inbounds nuw i8, ptr %77, i64 8
  %84 = load float, ptr %83, align 4, !tbaa !34
  %85 = getelementptr inbounds nuw i8, ptr %79, i64 8
  store float %84, ptr %85, align 4, !tbaa !42
  br label %88

86:                                               ; preds = %88
  %87 = add nuw i64 %.06274, 1
  %exitcond86.not = icmp eq i64 %87, %2
  br i1 %exitcond86.not, label %._crit_edge, label %.lr.ph.split.split, !llvm.loop !101

88:                                               ; preds = %.lr.ph.split.split, %88
  %indvars.iv = phi i64 [ 0, %.lr.ph.split.split ], [ %indvars.iv.next, %88 ]
  %89 = getelementptr inbounds nuw float, ptr %77, i64 %indvars.iv
  %90 = load float, ptr %89, align 4, !tbaa !34
  %91 = getelementptr inbounds nuw [3 x float], ptr %6, i64 0, i64 %indvars.iv
  %92 = load float, ptr %91, align 4, !tbaa !34
  %93 = fcmp ogt float %92, %90
  %. = select i1 %93, float %90, float %92
  store float %., ptr %91, align 4, !tbaa !34
  %94 = getelementptr inbounds nuw [3 x float], ptr %7, i64 0, i64 %indvars.iv
  %95 = load float, ptr %94, align 4, !tbaa !34
  %96 = fcmp olt float %95, %90
  %97 = select i1 %96, float %90, float %95
  store float %97, ptr %94, align 4, !tbaa !34
  %indvars.iv.next = add nuw nsw i64 %indvars.iv, 1
  %exitcond.not = icmp eq i64 %indvars.iv.next, 3
  br i1 %exitcond.not, label %86, label %88, !llvm.loop !102

98:                                               ; preds = %._crit_edge
  %99 = fcmp oeq float %72, 0.000000e+00
  %100 = fdiv float 1.000000e+00, %72
  %101 = select i1 %99, float 0.000000e+00, float %100
  br i1 %.not81, label %.loopexit, label %.lr.ph80

.lr.ph80:                                         ; preds = %98, %.lr.ph80
  %.078 = phi i64 [ %114, %.lr.ph80 ], [ 0, %98 ]
  %102 = getelementptr inbounds nuw %"struct.meshopt::Vector3", ptr %0, i64 %.078
  %103 = load float, ptr %102, align 4, !tbaa !39
  %104 = fsub float %103, %55
  %105 = fmul float %101, %104
  store float %105, ptr %102, align 4, !tbaa !39
  %106 = getelementptr inbounds nuw i8, ptr %102, i64 4
  %107 = load float, ptr %106, align 4, !tbaa !41
  %108 = fsub float %107, %62
  %109 = fmul float %101, %108
  store float %109, ptr %106, align 4, !tbaa !41
  %110 = getelementptr inbounds nuw i8, ptr %102, i64 8
  %111 = load float, ptr %110, align 4, !tbaa !42
  %112 = fsub float %111, %69
  %113 = fmul float %101, %112
  store float %113, ptr %110, align 4, !tbaa !42
  %114 = add nuw i64 %.078, 1
  %exitcond97.not = icmp eq i64 %114, %2
  br i1 %exitcond97.not, label %.loopexit, label %.lr.ph80, !llvm.loop !103

.loopexit:                                        ; preds = %.lr.ph80, %98, %._crit_edge
  call void @llvm.lifetime.end.p0(i64 12, ptr nonnull %7) #16
  call void @llvm.lifetime.end.p0(i64 12, ptr nonnull %6) #16
  ret float %72
}